target datalayout = "e-m:e-p270:32:32-p271:32:32-p272:64:64-i64:64-i128:128-f80:128-n8:16:32:64-S128"
target triple = "x86_64-unknown-linux-gnu"

%struct.QList = type { %struct.QObjectBase_, %union.anon.0 }
%struct.QObjectBase_ = type { i32, i64 }
%union.anon.0 = type { %struct.QTailQLink }
%struct.QTailQLink = type { ptr, ptr }
%struct.QObject = type { %struct.QObjectBase_ }

@error_abort = external global ptr, align 8
@.str.35 = private unnamed_addr constant [25 x i8] c"!obj || obj->base.refcnt\00", align 1
@.str.36 = private unnamed_addr constant [105 x i8] c"/home/dtcxzyw/WorkSpace/Projects/compilers/llvm-opt-benchmark/bench/qemu/qemu/include/qapi/qmp/qobject.h\00", align 1
@__PRETTY_FUNCTION__.qobject_unref_impl = private unnamed_addr constant [35 x i8] c"void qobject_unref_impl(QObject *)\00", align 1

; Function Attrs: nounwind sspstrong uwtable
define internal void @qobject_unref_impl(ptr noundef %obj) #0 {
entry:
  %obj.addr = alloca ptr, align 8
  store ptr %obj, ptr %obj.addr, align 8
  %0 = load ptr, ptr %obj.addr, align 8
  %tobool = icmp ne ptr %0, null
  br i1 %tobool, label %lor.lhs.false, label %if.then

lor.lhs.false:                                    ; preds = %entry
  %1 = load ptr, ptr %obj.addr, align 8
  %base = getelementptr inbounds %struct.QObject, ptr %1, i32 0, i32 0
  %refcnt = getelementptr inbounds %struct.QObjectBase_, ptr %base, i32 0, i32 1
  %2 = load i64, ptr %refcnt, align 8
  %tobool1 = icmp ne i64 %2, 0
  br i1 %tobool1, label %if.then, label %if.else

if.then:                                          ; preds = %lor.lhs.false, %entry
  br label %if.end

if.else:                                          ; preds = %lor.lhs.false
  call void @__assert_fail(ptr noundef @.str.35, ptr noundef @.str.36, i32 noundef 97, ptr noundef @__PRETTY_FUNCTION__.qobject_unref_impl) #9
  unreachable

if.end:                                           ; preds = %if.then
  %3 = load ptr, ptr %obj.addr, align 8
  %tobool2 = icmp ne ptr %3, null
  br i1 %tobool2, label %land.lhs.true, label %if.end6

land.lhs.true:                                    ; preds = %if.end
  %4 = load ptr, ptr %obj.addr, align 8
  %base3 = getelementptr inbounds %struct.QObject, ptr %4, i32 0, i32 0
  %refcnt4 = getelementptr inbounds %struct.QObjectBase_, ptr %base3, i32 0, i32 1
  %5 = load i64, ptr %refcnt4, align 8
  %dec = add i64 %5, -1
  store i64 %dec, ptr %refcnt4, align 8
  %cmp = icmp eq i64 %dec, 0
  br i1 %cmp, label %if.then5, label %if.end6

if.then5:                                         ; preds = %land.lhs.true
  %6 = load ptr, ptr %obj.addr, align 8
  call void @qobject_destroy(ptr noundef %6)
  br label %if.end6

if.end6:                                          ; preds = %if.then5, %land.lhs.true, %if.end
  ret void
}

; Function Attrs: nounwind sspstrong uwtable
define dso_local void @qdev_prop_set_array(ptr noundef %dev, ptr noundef %name, ptr noundef %values) #0 {
entry:
  %dev.addr = alloca ptr, align 8
  %name.addr = alloca ptr, align 8
  %values.addr = alloca ptr, align 8
  %_obj0 = alloca ptr, align 8
  %tmp = alloca ptr, align 8
  %__mptr = alloca ptr, align 8
  %tmp1 = alloca ptr, align 8
  %_obj1 = alloca ptr, align 8
  %tmp2 = alloca ptr, align 8
  %__mptr5 = alloca ptr, align 8
  %tmp7 = alloca ptr, align 8
  store ptr %dev, ptr %dev.addr, align 8
  store ptr %name, ptr %name.addr, align 8
  store ptr %values, ptr %values.addr, align 8
  %0 = load ptr, ptr %dev.addr, align 8
  %1 = load ptr, ptr %name.addr, align 8
  %2 = load ptr, ptr %values.addr, align 8
  store ptr %2, ptr %_obj0, align 8
  %3 = load ptr, ptr %_obj0, align 8
  %tobool = icmp ne ptr %3, null
  br i1 %tobool, label %cond.true, label %cond.false

cond.true:                                        ; preds = %entry
  %4 = load ptr, ptr %_obj0, align 8
  %base = getelementptr inbounds %struct.QList, ptr %4, i32 0, i32 0
  store ptr %base, ptr %__mptr, align 8
  %5 = load ptr, ptr %__mptr, align 8
  %add.ptr = getelementptr i8, ptr %5, i64 0
  store ptr %add.ptr, ptr %tmp1, align 8
  %6 = load ptr, ptr %tmp1, align 8
  br label %cond.end

cond.false:                                       ; preds = %entry
  br label %cond.end

cond.end:                                         ; preds = %cond.false, %cond.true
  %cond = phi ptr [ %6, %cond.true ], [ null, %cond.false ]
  store ptr %cond, ptr %tmp, align 8
  %7 = load ptr, ptr %tmp, align 8
  %call = call zeroext i1 @object_property_set_qobject(ptr noundef %0, ptr noundef %1, ptr noundef %7, ptr noundef @error_abort)
  %8 = load ptr, ptr %values.addr, align 8
  store ptr %8, ptr %_obj1, align 8
  %9 = load ptr, ptr %_obj1, align 8
  %tobool3 = icmp ne ptr %9, null
  br i1 %tobool3, label %cond.true4, label %cond.false9

cond.true4:                                       ; preds = %cond.end
  %10 = load ptr, ptr %_obj1, align 8
  %base6 = getelementptr inbounds %struct.QList, ptr %10, i32 0, i32 0
  store ptr %base6, ptr %__mptr5, align 8
  %11 = load ptr, ptr %__mptr5, align 8
  %add.ptr8 = getelementptr i8, ptr %11, i64 0
  store ptr %add.ptr8, ptr %tmp7, align 8
  %12 = load ptr, ptr %tmp7, align 8
  br label %cond.end10

cond.false9:                                      ; preds = %cond.end
  br label %cond.end10

cond.end10:                                       ; preds = %cond.false9, %cond.true4
  %cond11 = phi ptr [ %12, %cond.true4 ], [ null, %cond.false9 ]
  store ptr %cond11, ptr %tmp2, align 8
  %13 = load ptr, ptr %tmp2, align 8
  call void @qobject_unref_impl(ptr noundef %13)
  ret void
}