; Function Attrs: nounwind sspstrong uwtable
define dso_local void @qdev_prop_set_array(ptr noundef %dev, ptr noundef %name, ptr noundef %values) local_unnamed_addr #0 {
entry:
  %tobool.not = icmp eq ptr %values, null
  %call = tail call zeroext i1 @object_property_set_qobject(ptr noundef %dev, ptr noundef %name, ptr noundef %values, ptr noundef nonnull @error_abort) #9
  br i1 %tobool.not, label %qobject_unref_impl.exit, label %lor.lhs.false.i

lor.lhs.false.i:                                  ; preds = %entry
  %refcnt.i = getelementptr inbounds nuw i8, ptr %values, i64 8
  %0 = load i64, ptr %refcnt.i, align 8
  %tobool1.not.i = icmp eq i64 %0, 0
  br i1 %tobool1.not.i, label %if.else.i, label %land.lhs.true.i

if.else.i:                                        ; preds = %lor.lhs.false.i
  tail call void @__assert_fail(ptr noundef nonnull @.str.35, ptr noundef nonnull @.str.36, i32 noundef 97, ptr noundef nonnull @__PRETTY_FUNCTION__.qobject_unref_impl) #10
  unreachable

land.lhs.true.i:                                  ; preds = %lor.lhs.false.i
  %dec.i = add i64 %0, -1
  store i64 %dec.i, ptr %refcnt.i, align 8
  %cmp.i = icmp eq i64 %dec.i, 0
  br i1 %cmp.i, label %if.then5.i, label %qobject_unref_impl.exit

if.then5.i:                                       ; preds = %land.lhs.true.i
  tail call void @qobject_destroy(ptr noundef nonnull %values) #9
  br label %qobject_unref_impl.exit

qobject_unref_impl.exit:                          ; preds = %entry, %land.lhs.true.i, %if.then5.i
  ret void
}